target datalayout = "e-m:e-p270:32:32-p271:32:32-p272:64:64-i64:64-i128:128-f80:128-n8:16:32:64-S128"
target triple = "x86_64-pc-linux-gnu"

@hf_x11_glx_GetColorTable_context_tag = internal global i32 0, align 4
@hf_x11_glx_GetColorTable_target = internal global i32 0, align 4
@hf_x11_glx_GetColorTable_format = internal global i32 0, align 4
@hf_x11_glx_GetColorTable_type = internal global i32 0, align 4
@hf_x11_glx_GetColorTable_swap_bytes = internal global i32 0, align 4

; Function Attrs: null_pointer_is_valid sspstrong uwtable
define internal void @glxGetColorTable(ptr noundef %0, ptr noundef %1, ptr noundef %2, ptr noundef %3, i32 noundef %4, i32 noundef %5) #1 {
  %7 = alloca ptr, align 8
  %8 = alloca ptr, align 8
  %9 = alloca ptr, align 8
  %10 = alloca ptr, align 8
  %11 = alloca i32, align 4
  %12 = alloca i32, align 4
  store ptr %0, ptr %7, align 8
  store ptr %1, ptr %8, align 8
  store ptr %2, ptr %9, align 8
  store ptr %3, ptr %10, align 8
  store i32 %4, ptr %11, align 4
  store i32 %5, ptr %12, align 4
  %13 = load ptr, ptr %10, align 8
  %14 = load i32, ptr @hf_x11_glx_GetColorTable_context_tag, align 4
  %15 = load ptr, ptr %7, align 8
  %16 = load ptr, ptr %9, align 8
  %17 = load i32, ptr %16, align 4
  %18 = load i32, ptr %11, align 4
  %19 = call ptr @proto_tree_add_item(ptr noundef %13, i32 noundef %14, ptr noundef %15, i32 noundef %17, i32 noundef 4, i32 noundef %18)
  %20 = load ptr, ptr %9, align 8
  %21 = load i32, ptr %20, align 4
  %22 = add i32 %21, 4
  store i32 %22, ptr %20, align 4
  %23 = load ptr, ptr %10, align 8
  %24 = load i32, ptr @hf_x11_glx_GetColorTable_target, align 4
  %25 = load ptr, ptr %7, align 8
  %26 = load ptr, ptr %9, align 8
  %27 = load i32, ptr %26, align 4
  %28 = load i32, ptr %11, align 4
  %29 = call ptr @proto_tree_add_item(ptr noundef %23, i32 noundef %24, ptr noundef %25, i32 noundef %27, i32 noundef 4, i32 noundef %28)
  %30 = load ptr, ptr %9, align 8
  %31 = load i32, ptr %30, align 4
  %32 = add i32 %31, 4
  store i32 %32, ptr %30, align 4
  %33 = load ptr, ptr %10, align 8
  %34 = load i32, ptr @hf_x11_glx_GetColorTable_format, align 4
  %35 = load ptr, ptr %7, align 8
  %36 = load ptr, ptr %9, align 8
  %37 = load i32, ptr %36, align 4
  %38 = load i32, ptr %11, align 4
  %39 = call ptr @proto_tree_add_item(ptr noundef %33, i32 noundef %34, ptr noundef %35, i32 noundef %37, i32 noundef 4, i32 noundef %38)
  %40 = load ptr, ptr %9, align 8
  %41 = load i32, ptr %40, align 4
  %42 = add i32 %41, 4
  store i32 %42, ptr %40, align 4
  %43 = load ptr, ptr %10, align 8
  %44 = load i32, ptr @hf_x11_glx_GetColorTable_type, align 4
  %45 = load ptr, ptr %7, align 8
  %46 = load ptr, ptr %9, align 8
  %47 = load i32, ptr %46, align 4
  %48 = load i32, ptr %11, align 4
  %49 = call ptr @proto_tree_add_item(ptr noundef %43, i32 noundef %44, ptr noundef %45, i32 noundef %47, i32 noundef 4, i32 noundef %48)
  %50 = load ptr, ptr %9, align 8
  %51 = load i32, ptr %50, align 4
  %52 = add i32 %51, 4
  store i32 %52, ptr %50, align 4
  %53 = load ptr, ptr %10, align 8
  %54 = load i32, ptr @hf_x11_glx_GetColorTable_swap_bytes, align 4
  %55 = load ptr, ptr %7, align 8
  %56 = load ptr, ptr %9, align 8
  %57 = load i32, ptr %56, align 4
  %58 = load i32, ptr %11, align 4
  %59 = call ptr @proto_tree_add_item(ptr noundef %53, i32 noundef %54, ptr noundef %55, i32 noundef %57, i32 noundef 1, i32 noundef %58)
  %60 = load ptr, ptr %9, align 8
  %61 = load i32, ptr %60, align 4
  %62 = add i32 %61, 1
  store i32 %62, ptr %60, align 4
  ret void
}